Archive member included because of file (symbol)

C:\devkitPro\ctrulib\libctru/lib\libctru.a(gfx.o)
                              main.o (gfxInit)
C:\devkitPro\ctrulib\libctru/lib\libctru.a(initSystem.o)
                              c:/devkitpro/devkitarm/bin/../lib/gcc/arm-none-eabi/4.9.2/../../../../arm-none-eabi/lib/3dsx_crt0.o (__ctru_exit)
C:\devkitPro\ctrulib\libctru/lib\libctru.a(srv.o)
                              C:\devkitPro\ctrulib\libctru/lib\libctru.a(initSystem.o) (__destroy_handle_list)
C:\devkitPro\ctrulib\libctru/lib\libctru.a(apt.o)
                              main.o (aptInit)
C:\devkitPro\ctrulib\libctru/lib\libctru.a(gsp.o)
                              C:\devkitPro\ctrulib\libctru/lib\libctru.a(gfx.o) (gspInit)
C:\devkitPro\ctrulib\libctru/lib\libctru.a(gx.o)
                              C:\devkitPro\ctrulib\libctru/lib\libctru.a(gfx.o) (gxCmdBuf)
C:\devkitPro\ctrulib\libctru/lib\libctru.a(hid.o)
                              main.o (hidExit)
C:\devkitPro\ctrulib\libctru/lib\libctru.a(irrst.o)
                              C:\devkitPro\ctrulib\libctru/lib\libctru.a(hid.o) (irrstExit)
C:\devkitPro\ctrulib\libctru/lib\libctru.a(svc.o)
                              C:\devkitPro\ctrulib\libctru/lib\libctru.a(srv.o) (getThreadCommandBuffer)
C:\devkitPro\ctrulib\libctru/lib\libctru.a(linear.o)
                              C:\devkitPro\ctrulib\libctru/lib\libctru.a(gfx.o) (linearAlloc)
C:\devkitPro\ctrulib\libctru/lib\libctru.a(mem_pool.o)
                              C:\devkitPro\ctrulib\libctru/lib\libctru.a(linear.o) (MemPool::Allocate(MemChunk&, unsigned long, int))
c:/devkitpro/devkitarm/bin/../lib/gcc/arm-none-eabi/4.9.2\libgcc.a(_divsi3.o)
                              main.o (__aeabi_idiv)
c:/devkitpro/devkitarm/bin/../lib/gcc/arm-none-eabi/4.9.2\libgcc.a(_dvmd_tls.o)
                              c:/devkitpro/devkitarm/bin/../lib/gcc/arm-none-eabi/4.9.2\libgcc.a(_divsi3.o) (__aeabi_idiv0)
c:/devkitpro/devkitarm/bin/../lib/gcc/arm-none-eabi/4.9.2/../../../../arm-none-eabi/lib\libg.a(lib_a-fini.o)
                              C:\devkitPro\ctrulib\libctru/lib\libctru.a(initSystem.o) (__libc_fini_array)
c:/devkitpro/devkitarm/bin/../lib/gcc/arm-none-eabi/4.9.2/../../../../arm-none-eabi/lib\libg.a(lib_a-init.o)
                              C:\devkitPro\ctrulib\libctru/lib\libctru.a(initSystem.o) (__libc_init_array)
c:/devkitpro/devkitarm/bin/../lib/gcc/arm-none-eabi/4.9.2/../../../../arm-none-eabi/lib\libg.a(lib_a-malloc.o)
                              C:\devkitPro\ctrulib\libctru/lib\libctru.a(linear.o) (malloc)
c:/devkitpro/devkitarm/bin/../lib/gcc/arm-none-eabi/4.9.2/../../../../arm-none-eabi/lib\libg.a(lib_a-mallocr.o)
                              c:/devkitpro/devkitarm/bin/../lib/gcc/arm-none-eabi/4.9.2/../../../../arm-none-eabi/lib\libg.a(lib_a-malloc.o) (_malloc_r)
c:/devkitpro/devkitarm/bin/../lib/gcc/arm-none-eabi/4.9.2/../../../../arm-none-eabi/lib\libg.a(lib_a-memcpy-stub.o)
                              gfx.o (memcpy)
c:/devkitpro/devkitarm/bin/../lib/gcc/arm-none-eabi/4.9.2/../../../../arm-none-eabi/lib\libg.a(lib_a-mlock.o)
                              c:/devkitpro/devkitarm/bin/../lib/gcc/arm-none-eabi/4.9.2/../../../../arm-none-eabi/lib\libg.a(lib_a-mallocr.o) (__malloc_lock)
c:/devkitpro/devkitarm/bin/../lib/gcc/arm-none-eabi/4.9.2/../../../../arm-none-eabi/lib\libg.a(lib_a-strcpy.o)
                              C:\devkitPro\ctrulib\libctru/lib\libctru.a(srv.o) (strcpy)
c:/devkitpro/devkitarm/bin/../lib/gcc/arm-none-eabi/4.9.2/../../../../arm-none-eabi/lib\libg.a(lib_a-strlen.o)
                              C:\devkitPro\ctrulib\libctru/lib\libctru.a(srv.o) (strlen)
c:/devkitpro/devkitarm/bin/../lib/gcc/arm-none-eabi/4.9.2/../../../../arm-none-eabi/lib\libg.a(lib_a-freer.o)
                              c:/devkitpro/devkitarm/bin/../lib/gcc/arm-none-eabi/4.9.2/../../../../arm-none-eabi/lib\libg.a(lib_a-malloc.o) (_free_r)
c:/devkitpro/devkitarm/bin/../lib/gcc/arm-none-eabi/4.9.2/../../../../arm-none-eabi/lib\libg.a(lib_a-impure.o)
                              c:/devkitpro/devkitarm/bin/../lib/gcc/arm-none-eabi/4.9.2/../../../../arm-none-eabi/lib\libg.a(lib_a-malloc.o) (_impure_ptr)
c:/devkitpro/devkitarm/bin/../lib/gcc/arm-none-eabi/4.9.2/../../../../arm-none-eabi/lib\libsysbase.a(sbrk.o)
                              c:/devkitpro/devkitarm/bin/../lib/gcc/arm-none-eabi/4.9.2/../../../../arm-none-eabi/lib\libg.a(lib_a-mallocr.o) (_sbrk_r)
c:/devkitpro/devkitarm/bin/../lib/gcc/arm-none-eabi/4.9.2/../../../../arm-none-eabi/lib\libsysbase.a(malloc_vars.o)
                              C:\devkitPro\ctrulib\libctru/lib\libctru.a(initSystem.o) (fake_heap_start)
c:/devkitpro/devkitarm/bin/../lib/gcc/arm-none-eabi/4.9.2/../../../../arm-none-eabi/lib\libsysbase.a(syscall_support.o)
                              C:\devkitPro\ctrulib\libctru/lib\libctru.a(initSystem.o) (__syscalls)

Allocating common symbols
Common symbol       size              file

hidMemHandle        0x4               C:\devkitPro\ctrulib\libctru/lib\libctru.a(hid.o)
aptEventHandlerThread
                    0x4               C:\devkitPro\ctrulib\libctru/lib\libctru.a(apt.o)
hidHandle           0x4               C:\devkitPro\ctrulib\libctru/lib\libctru.a(hid.o)
gspEventStack       0x1000            C:\devkitPro\ctrulib\libctru/lib\libctru.a(gsp.o)
gfxBottomFramebuffers
                    0x8               C:\devkitPro\ctrulib\libctru/lib\libctru.a(gfx.o)
gspSharedMemHandle  0x4               C:\devkitPro\ctrulib\libctru/lib\libctru.a(gfx.o)
__system_argv       0x4               C:\devkitPro\ctrulib\libctru/lib\libctru.a(initSystem.o)
hidSharedMem        0x4               C:\devkitPro\ctrulib\libctru/lib\libctru.a(hid.o)
__system_argc       0x4               C:\devkitPro\ctrulib\libctru/lib\libctru.a(initSystem.o)
bottomFramebufferInfo
                    0x1c              C:\devkitPro\ctrulib\libctru/lib\libctru.a(gfx.o)
__linear_heap       0x4               C:\devkitPro\ctrulib\libctru/lib\libctru.a(initSystem.o)
aptParameters       0x1000            C:\devkitPro\ctrulib\libctru/lib\libctru.a(apt.o)
aptEventHandlerStack
                    0x1000            C:\devkitPro\ctrulib\libctru/lib\libctru.a(apt.o)
aptuHandle          0x4               C:\devkitPro\ctrulib\libctru/lib\libctru.a(apt.o)
irrstHandle         0x4               C:\devkitPro\ctrulib\libctru/lib\libctru.a(irrst.o)
aptEvents           0xc               C:\devkitPro\ctrulib\libctru/lib\libctru.a(apt.o)
gspEventThread      0x4               C:\devkitPro\ctrulib\libctru/lib\libctru.a(gsp.o)
gspEvent            0x4               C:\devkitPro\ctrulib\libctru/lib\libctru.a(gfx.o)
hidEvents           0x14              C:\devkitPro\ctrulib\libctru/lib\libctru.a(hid.o)
__system_retAddr    0x4               C:\devkitPro\ctrulib\libctru/lib\libctru.a(initSystem.o)
irrstEvent          0x4               C:\devkitPro\ctrulib\libctru/lib\libctru.a(irrst.o)
currentBuffer       0x1               C:\devkitPro\ctrulib\libctru/lib\libctru.a(gfx.o)
irrstMemHandle      0x4               C:\devkitPro\ctrulib\libctru/lib\libctru.a(irrst.o)
gfxTopLeftFramebuffers
                    0x8               C:\devkitPro\ctrulib\libctru/lib\libctru.a(gfx.o)
enable3d            0x1               C:\devkitPro\ctrulib\libctru/lib\libctru.a(gfx.o)
gfxTopRightFramebuffers
                    0x8               C:\devkitPro\ctrulib\libctru/lib\libctru.a(gfx.o)
topFramebufferInfo  0x1c              C:\devkitPro\ctrulib\libctru/lib\libctru.a(gfx.o)
gspEvents           0x1c              C:\devkitPro\ctrulib\libctru/lib\libctru.a(gsp.o)
gfxThreadID         0x1               C:\devkitPro\ctrulib\libctru/lib\libctru.a(gfx.o)
gfxSharedMemory     0x4               C:\devkitPro\ctrulib\libctru/lib\libctru.a(gfx.o)
gspRunEvents        0x1               C:\devkitPro\ctrulib\libctru/lib\libctru.a(gsp.o)
irrstSharedMem      0x4               C:\devkitPro\ctrulib\libctru/lib\libctru.a(irrst.o)
aptStatusMutex      0x4               C:\devkitPro\ctrulib\libctru/lib\libctru.a(apt.o)
gxCmdBuf            0x4               C:\devkitPro\ctrulib\libctru/lib\libctru.a(gx.o)
aptLockHandle       0x4               C:\devkitPro\ctrulib\libctru/lib\libctru.a(apt.o)
currentAppId        0x2               C:\devkitPro\ctrulib\libctru/lib\libctru.a(apt.o)

Discarded input sections

 .comment       0x00000000       0x23 c:/devkitpro/devkitarm/bin/../lib/gcc/arm-none-eabi/4.9.2/crtbegin.o
 .comment       0x00000000       0x23 gfx.o
 .comment       0x00000000       0x23 main.o
 .comment       0x00000000       0x23 C:\devkitPro\ctrulib\libctru/lib\libctru.a(gfx.o)
 .comment       0x00000000       0x23 C:\devkitPro\ctrulib\libctru/lib\libctru.a(initSystem.o)
 .comment       0x00000000       0x23 C:\devkitPro\ctrulib\libctru/lib\libctru.a(srv.o)
 .comment       0x00000000       0x23 C:\devkitPro\ctrulib\libctru/lib\libctru.a(apt.o)
 .comment       0x00000000       0x23 C:\devkitPro\ctrulib\libctru/lib\libctru.a(gsp.o)
 .comment       0x00000000       0x23 C:\devkitPro\ctrulib\libctru/lib\libctru.a(gx.o)
 .comment       0x00000000       0x23 C:\devkitPro\ctrulib\libctru/lib\libctru.a(hid.o)
 .comment       0x00000000       0x23 C:\devkitPro\ctrulib\libctru/lib\libctru.a(irrst.o)
 .comment       0x00000000       0x23 C:\devkitPro\ctrulib\libctru/lib\libctru.a(linear.o)
 .comment       0x00000000       0x23 C:\devkitPro\ctrulib\libctru/lib\libctru.a(mem_pool.o)
 .comment       0x00000000       0x23 c:/devkitpro/devkitarm/bin/../lib/gcc/arm-none-eabi/4.9.2/../../../../arm-none-eabi/lib\libg.a(lib_a-fini.o)
 .comment       0x00000000       0x23 c:/devkitpro/devkitarm/bin/../lib/gcc/arm-none-eabi/4.9.2/../../../../arm-none-eabi/lib\libg.a(lib_a-init.o)
 .comment       0x00000000       0x23 c:/devkitpro/devkitarm/bin/../lib/gcc/arm-none-eabi/4.9.2/../../../../arm-none-eabi/lib\libg.a(lib_a-malloc.o)
 .comment       0x00000000       0x23 c:/devkitpro/devkitarm/bin/../lib/gcc/arm-none-eabi/4.9.2/../../../../arm-none-eabi/lib\libg.a(lib_a-mallocr.o)
 .comment       0x00000000       0x23 c:/devkitpro/devkitarm/bin/../lib/gcc/arm-none-eabi/4.9.2/../../../../arm-none-eabi/lib\libg.a(lib_a-memcpy-stub.o)
 .comment       0x00000000       0x23 c:/devkitpro/devkitarm/bin/../lib/gcc/arm-none-eabi/4.9.2/../../../../arm-none-eabi/lib\libg.a(lib_a-mlock.o)
 .comment       0x00000000       0x23 c:/devkitpro/devkitarm/bin/../lib/gcc/arm-none-eabi/4.9.2/../../../../arm-none-eabi/lib\libg.a(lib_a-strcpy.o)
 .comment       0x00000000       0x23 c:/devkitpro/devkitarm/bin/../lib/gcc/arm-none-eabi/4.9.2/../../../../arm-none-eabi/lib\libg.a(lib_a-strlen.o)
 .comment       0x00000000       0x23 c:/devkitpro/devkitarm/bin/../lib/gcc/arm-none-eabi/4.9.2/../../../../arm-none-eabi/lib\libg.a(lib_a-freer.o)
 .comment       0x00000000       0x23 c:/devkitpro/devkitarm/bin/../lib/gcc/arm-none-eabi/4.9.2/../../../../arm-none-eabi/lib\libg.a(lib_a-impure.o)
 .comment       0x00000000       0x23 c:/devkitpro/devkitarm/bin/../lib/gcc/arm-none-eabi/4.9.2/../../../../arm-none-eabi/lib\libsysbase.a(sbrk.o)
 .comment       0x00000000       0x23 c:/devkitpro/devkitarm/bin/../lib/gcc/arm-none-eabi/4.9.2/../../../../arm-none-eabi/lib\libsysbase.a(malloc_vars.o)
 .comment       0x00000000       0x23 c:/devkitpro/devkitarm/bin/../lib/gcc/arm-none-eabi/4.9.2/../../../../arm-none-eabi/lib\libsysbase.a(syscall_support.o)
 .comment       0x00000000       0x23 c:/devkitpro/devkitarm/bin/../lib/gcc/arm-none-eabi/4.9.2/crtend.o

Memory Configuration

Name             Origin             Length             Attributes
*default*        0x00000000         0xffffffff

Linker script and memory map

                0x00100000                . = 0x100000
                0x00100000                __start__ = .

.text           0x00100000     0x579c
 *(.crt0)
 .crt0          0x00100000       0x94 c:/devkitpro/devkitarm/bin/../lib/gcc/arm-none-eabi/4.9.2/../../../../arm-none-eabi/lib/3dsx_crt0.o
                0x00100000                _start
                0x00100008                __service_ptr
                0x0010000c                __apt_appid
                0x00100010                __heap_size
                0x00100014                __linear_heap_size
                0x00100018                __system_arglist
                0x0010001c                __system_runflags
 *(.init)
 .init          0x00100094        0xc c:/devkitpro/devkitarm/bin/../lib/gcc/arm-none-eabi/4.9.2/crti.o
                0x00100094                _init
 .init          0x001000a0        0xc c:/devkitpro/devkitarm/bin/../lib/gcc/arm-none-eabi/4.9.2/crtn.o
                0x001000ac                . = ALIGN (0x4)
 *(.text)
 .text          0x001000ac        0x0 c:/devkitpro/devkitarm/bin/../lib/gcc/arm-none-eabi/4.9.2/../../../../arm-none-eabi/lib/3dsx_crt0.o
 .text          0x001000ac        0x0 c:/devkitpro/devkitarm/bin/../lib/gcc/arm-none-eabi/4.9.2/crti.o
 .text          0x001000ac      0x108 c:/devkitpro/devkitarm/bin/../lib/gcc/arm-none-eabi/4.9.2/crtbegin.o
 .text          0x001001b4        0x0 bgtop.bin.o
 .text          0x001001b4        0x0 numbers.bin.o
 .text          0x001001b4      0x434 gfx.o
                0x001001b4                gfxDrawSprite
                0x001002c4                gfxDrawSpriteAlpha
                0x00100430                gfxDrawSpriteAlphaBlend
 .text          0x001005e8      0x144 main.o
                0x001005e8                resetVars
                0x0010060c                renderNumber
                0x00100650                render
 .text          0x0010072c      0x52c C:\devkitPro\ctrulib\libctru/lib\libctru.a(gfx.o)
                0x00100798                gfxSet3D
                0x001007a8                gfxSetFramebufferInfo
                0x001007f8                gfxWriteFramebufferInfo
                0x001008a4                gfxInit
                0x001009fc                gfxExit
                0x00100a94                gfxGetFramebuffer
                0x00100b34                gfxFlushBuffers
                0x00100bc0                gfxSwapBuffers
                0x00100c18                gfxSwapBuffersGpu
 .text          0x00100c58      0x238 C:\devkitPro\ctrulib\libctru/lib\libctru.a(initSystem.o)
                0x00100c58                __ctru_exit
                0x00100cdc                initSystem
 .text          0x00100e90      0x300 C:\devkitPro\ctrulib\libctru/lib\libctru.a(srv.o)
                0x00100e90                __get_handle_from_list
                0x00100f28                __destroy_handle_list
                0x00100f7c                srvExit
                0x00100fa4                srvRegisterClient
                0x00100fdc                srvInit
                0x00101030                srvGetServiceHandle
                0x001010b0                srvPmInit
                0x00101104                srvRegisterProcess
                0x00101158                srvUnregisterProcess
 .text          0x00101190     0x18fc C:\devkitPro\ctrulib\libctru/lib\libctru.a(apt.o)
                0x001011f4                aptInitCaptureInfo
                0x001012a8                aptWaitStatusEvent
                0x001012d0                aptGetStatus
                0x00101308                aptSetStatus
                0x00101370                aptGetStatusPower
                0x001013a8                aptSetStatusPower
                0x001013e0                aptOpenSession
                0x00101404                aptCloseSession
                0x0010142c                aptSignalReadyForSleep
                0x0010143c                APT_GetLockHandle
                0x00101494                APT_Initialize
                0x00101504                APT_HardwareResetAsync
                0x0010153c                APT_Enable
                0x0010157c                APT_GetAppletManInfo
                0x00101604                aptGetMenuAppID
                0x00101640                APT_IsRegistered
                0x00101698                APT_InquireNotification
                0x001016f0                APT_PrepareToJumpToHomeMenu
                0x00101728                APT_JumpToHomeMenu
                0x0010178c                APT_NotifyToWait
                0x001017cc                APT_AppletUtility
                0x00101860                aptAppletUtility_Exit_RetToApp
                0x00101950                aptAppletClosed
                0x00101a6c                aptInit
                0x00101bac                APT_GlanceParameter
                0x00101c34                APT_ReceiveParameter
                0x00101cbc                APT_SendParameter
                0x00101d3c                APT_SendCaptureBufferInfo
                0x00101d98                aptReturnToMenu
                0x00101f58                APT_ReplySleepQuery
                0x00101fa8                APT_ReplySleepNotificationComplete
                0x00101fe8                aptEventHandler
                0x00102294                APT_PrepareToCloseApplication
                0x001022d4                APT_CloseApplication
                0x00102340                aptExit
                0x00102410                APT_SetAppCpuTimeLimit
                0x00102454                APT_GetAppCpuTimeLimit
                0x001024a8                APT_CheckNew3DS_Application
                0x001024fc                APT_CheckNew3DS_System
                0x00102550                APT_CheckNew3DS
                0x001025cc                APT_PrepareToDoAppJump
                0x0010262c                APT_DoAppJump
                0x001026a4                APT_PrepareToStartLibraryApplet
                0x001026e4                APT_StartLibraryApplet
                0x00102758                aptAppletStarted
                0x0010285c                aptMainLoop
                0x001028d4                APT_LaunchLibraryApplet
 .text          0x00102a8c      0x950 C:\devkitPro\ctrulib\libctru/lib\libctru.a(gsp.o)
                0x00102b80                gspInit
                0x00102b94                gspExit
                0x00102bac                gspInitEventHandler
                0x00102c78                gspExitEventHandler
                0x00102cd0                gspWaitForEvent
                0x00102d28                GSPGPU_WriteHWRegs
                0x00102dac                GSPGPU_WriteHWRegsWithMask
                0x00102e48                GSPGPU_ReadHWRegs
                0x00102ecc                GSPGPU_SetBufferSwap
                0x00102f4c                GSPGPU_FlushDataCache
                0x00102fb0                GSPGPU_InvalidateDataCache
                0x00103014                GSPGPU_SetLcdForceBlack
                0x00103054                GSPGPU_TriggerCmdReqQueue
                0x0010308c                GSPGPU_RegisterInterruptRelayQueue
                0x00103108                GSPGPU_UnregisterInterruptRelayQueue
                0x00103140                GSPGPU_AcquireRight
                0x00103194                GSPGPU_ReleaseRight
                0x001031cc                GSPGPU_ImportDisplayCaptureInfo
                0x00103260                GSPGPU_SaveVramSysArea
                0x00103298                GSPGPU_RestoreVramSysArea
                0x001032d0                GSPGPU_SubmitGxCommand
 .text          0x001033dc      0x264 C:\devkitPro\ctrulib\libctru/lib\libctru.a(gx.o)
                0x001033dc                GX_RequestDma
                0x00103430                GX_SetCommandList_Last
                0x00103498                GX_SetMemoryFill
                0x0010350c                GX_SetDisplayTransfer
                0x00103570                GX_SetTextureCopy
                0x001035d8                GX_SetCommandList_First
 .text          0x00103640      0x644 C:\devkitPro\ctrulib\libctru/lib\libctru.a(hid.o)
                0x00103640                hidExit
                0x001036c4                hidWaitForEvent
                0x0010371c                hidCheckSectionUpdateTime
                0x00103758                hidScanInput
                0x0010398c                hidKeysHeld
                0x0010399c                hidKeysDown
                0x001039ac                hidKeysUp
                0x001039bc                hidTouchRead
                0x001039d4                hidCircleRead
                0x001039ec                hidAccelRead
                0x00103a0c                hidGyroRead
                0x00103a2c                HIDUSER_GetHandles
                0x00103ac0                hidInit
                0x00103bc4                HIDUSER_EnableAccelerometer
                0x00103bf4                HIDUSER_DisableAccelerometer
                0x00103c24                HIDUSER_EnableGyroscope
                0x00103c54                HIDUSER_DisableGyroscope
 .text          0x00103c84      0x360 C:\devkitPro\ctrulib\libctru/lib\libctru.a(irrst.o)
                0x00103c84                irrstExit
                0x00103cec                irrstWaitForEvent
                0x00103d38                irrstCheckSectionUpdateTime
                0x00103d74                irrstScanInput
                0x00103e28                irrstKeysHeld
                0x00103e40                irrstCstickRead
                0x00103e58                IRRST_GetHandles
                0x00103eac                irrstInit
                0x00103f74                IRRST_Initialize
                0x00103fb4                IRRST_Shutdown
 *fill*         0x00103fe4        0xc 
 .text          0x00103ff0      0x220 C:\devkitPro\ctrulib\libctru/lib\libctru.a(svc.o)
                0x00103ff0                getThreadCommandBuffer
                0x00103ffc                svcControlMemory
                0x0010401c                svcQueryMemory
                0x0010404c                svcExitProcess
                0x00104054                svcCreateThread
                0x00104074                svcExitThread
                0x0010407c                svcSleepThread
                0x00104084                svcCreateMutex
                0x00104098                svcReleaseMutex
                0x001040a0                svcCreateEvent
                0x001040b4                svcSignalEvent
                0x001040bc                svcClearEvent
                0x001040c4                svcCreateTimer
                0x001040d8                svcSetTimer
                0x001040e0                svcCancelTimer
                0x001040e8                svcClearTimer
                0x001040f0                svcCreateMemoryBlock
                0x00104108                svcMapMemoryBlock
                0x00104110                svcUnmapMemoryBlock
                0x00104118                svcCreateAddressArbiter
                0x00104120                svcArbitrateAddress
                0x00104140                svcCloseHandle
                0x00104148                svcWaitSynchronization
                0x00104150                svcWaitSynchronizationN
                0x00104170                svcDuplicateHandle
                0x00104184                svcGetSystemTick
                0x0010418c                svcGetSystemInfo
                0x001041ac                svcGetProcessInfo
                0x001041c8                svcConnectToPort
                0x001041dc                svcSendSyncRequest
                0x001041e4                svcGetProcessId
                0x001041f8                svcOutputDebugString
 .text          0x00104210      0x120 C:\devkitPro\ctrulib\libctru/lib\libctru.a(linear.o)
                0x00104210                linearMemAlign
                0x001042fc                linearAlloc
                0x00104304                linearRealloc
                0x0010430c                linearFree
                0x00104324                linearSpaceFree
 .text          0x00104330      0x2f8 C:\devkitPro\ctrulib\libctru/lib\libctru.a(mem_pool.o)
                0x00104330                MemPool::CoalesceRight(MemBlock*)
                0x001043d4                MemPool::Allocate(MemChunk&, unsigned long, int)
                0x001044f8                MemPool::Deallocate(MemChunk const&)
                0x001045f8                MemPool::GetFreeSpace()
 .text          0x00104628      0x148 c:/devkitpro/devkitarm/bin/../lib/gcc/arm-none-eabi/4.9.2\libgcc.a(_divsi3.o)
                0x00104628                __divsi3
                0x00104628                __aeabi_idiv
                0x00104750                __aeabi_idivmod
 .text          0x00104770        0x4 c:/devkitpro/devkitarm/bin/../lib/gcc/arm-none-eabi/4.9.2\libgcc.a(_dvmd_tls.o)
                0x00104770                __aeabi_idiv0
                0x00104770                __aeabi_ldiv0
 .text          0x00104774       0x48 c:/devkitpro/devkitarm/bin/../lib/gcc/arm-none-eabi/4.9.2/../../../../arm-none-eabi/lib\libg.a(lib_a-fini.o)
                0x00104774                __libc_fini_array
 .text          0x001047bc       0x80 c:/devkitpro/devkitarm/bin/../lib/gcc/arm-none-eabi/4.9.2/../../../../arm-none-eabi/lib\libg.a(lib_a-init.o)
                0x001047bc                __libc_init_array
 .text          0x0010483c       0x40 c:/devkitpro/devkitarm/bin/../lib/gcc/arm-none-eabi/4.9.2/../../../../arm-none-eabi/lib\libg.a(lib_a-malloc.o)
                0x0010483c                malloc
                0x0010485c                free
 .text          0x0010487c      0x724 c:/devkitpro/devkitarm/bin/../lib/gcc/arm-none-eabi/4.9.2/../../../../arm-none-eabi/lib\libg.a(lib_a-mallocr.o)
                0x0010487c                _malloc_r
 .text          0x00104fa0       0xf0 c:/devkitpro/devkitarm/bin/../lib/gcc/arm-none-eabi/4.9.2/../../../../arm-none-eabi/lib\libg.a(lib_a-memcpy-stub.o)
                0x00104fa0                memcpy
 .text          0x00105090        0x8 c:/devkitpro/devkitarm/bin/../lib/gcc/arm-none-eabi/4.9.2/../../../../arm-none-eabi/lib\libg.a(lib_a-mlock.o)
                0x00105090                __malloc_lock
                0x00105094                __malloc_unlock
 .text          0x00105098       0xf0 c:/devkitpro/devkitarm/bin/../lib/gcc/arm-none-eabi/4.9.2/../../../../arm-none-eabi/lib\libg.a(lib_a-strcpy.o)
                0x00105098                strcpy
 .text          0x00105188       0x60 c:/devkitpro/devkitarm/bin/../lib/gcc/arm-none-eabi/4.9.2/../../../../arm-none-eabi/lib\libg.a(lib_a-strlen.o)
                0x00105188                strlen
 .text          0x001051e8      0x3bc c:/devkitpro/devkitarm/bin/../lib/gcc/arm-none-eabi/4.9.2/../../../../arm-none-eabi/lib\libg.a(lib_a-freer.o)
                0x001051e8                _malloc_trim_r
                0x001052e8                _free_r
 .text          0x001055a4        0x0 c:/devkitpro/devkitarm/bin/../lib/gcc/arm-none-eabi/4.9.2/../../../../arm-none-eabi/lib\libg.a(lib_a-impure.o)
 .text          0x001055a4       0x70 c:/devkitpro/devkitarm/bin/../lib/gcc/arm-none-eabi/4.9.2/../../../../arm-none-eabi/lib\libsysbase.a(sbrk.o)
                0x001055a4                _sbrk_r
 .text          0x00105614        0x0 c:/devkitpro/devkitarm/bin/../lib/gcc/arm-none-eabi/4.9.2/../../../../arm-none-eabi/lib\libsysbase.a(malloc_vars.o)
 .text          0x00105614        0x0 c:/devkitpro/devkitarm/bin/../lib/gcc/arm-none-eabi/4.9.2/../../../../arm-none-eabi/lib\libsysbase.a(syscall_support.o)
 .text          0x00105614        0x0 c:/devkitpro/devkitarm/bin/../lib/gcc/arm-none-eabi/4.9.2/crtend.o
 .text          0x00105614        0x0 c:/devkitpro/devkitarm/bin/../lib/gcc/arm-none-eabi/4.9.2/crtn.o
 *(.text.*)
 .text.startup  0x00105614      0x188 main.o
                0x00105614                main
 *(.glue_7)
 .glue_7        0x00000000        0x0 linker stubs
 *(.glue_7t)
 .glue_7t       0x00000000        0x0 linker stubs
 *(.stub)
 *(.gnu.warning)
 *(.gnu.linkonce.t*)
                0x0010579c                . = ALIGN (0x4)

.vfp11_veneer   0x0010579c        0x0
 .vfp11_veneer  0x00000000        0x0 linker stubs

.v4_bx          0x0010579c        0x0
 .v4_bx         0x00000000        0x0 linker stubs

.iplt           0x0010579c        0x0
 .iplt          0x00000000        0x0 c:/devkitpro/devkitarm/bin/../lib/gcc/arm-none-eabi/4.9.2/../../../../arm-none-eabi/lib/3dsx_crt0.o

.fini           0x0010579c       0x18
 .fini          0x0010579c        0xc c:/devkitpro/devkitarm/bin/../lib/gcc/arm-none-eabi/4.9.2/crti.o
                0x0010579c                _fini
 .fini          0x001057a8        0xc c:/devkitpro/devkitarm/bin/../lib/gcc/arm-none-eabi/4.9.2/crtn.o

.rodata         0x00106000    0x4c500
 *(.rodata)
 .rodata        0x00106000    0x46504 bgtop.bin.o
                0x00106000                bgtop_bin
                0x0014c4fd                bgtop_bin_end
                0x0014c500                bgtop_bin_size
 .rodata        0x0014c504     0x5fa0 numbers.bin.o
                0x0014c504                numbers_bin
                0x001524a0                numbers_bin_end
                0x001524a0                numbers_bin_size
 .rodata        0x001524a4        0xc C:\devkitPro\ctrulib\libctru/lib\libctru.a(apt.o)
 .rodata        0x001524b0        0x4 c:/devkitpro/devkitarm/bin/../lib/gcc/arm-none-eabi/4.9.2/../../../../arm-none-eabi/lib\libg.a(lib_a-impure.o)
                0x001524b0                _global_impure_ptr
 *(.roda)
 *(.rodata.*)
 .rodata.str1.4
                0x001524b4        0xf C:\devkitPro\ctrulib\libctru/lib\libctru.a(srv.o)
                                 0x10 (size before relaxing)
 *fill*         0x001524c3        0x1 
 .rodata.str1.4
                0x001524c4       0x16 C:\devkitPro\ctrulib\libctru/lib\libctru.a(apt.o)
                                 0x18 (size before relaxing)
 *fill*         0x001524da        0x2 
 .rodata.str1.4
                0x001524dc        0x9 C:\devkitPro\ctrulib\libctru/lib\libctru.a(gsp.o)
                                  0xc (size before relaxing)
 *fill*         0x001524e5        0x3 
 .rodata.str1.4
                0x001524e8        0x9 C:\devkitPro\ctrulib\libctru/lib\libctru.a(hid.o)
                                  0xc (size before relaxing)
 *fill*         0x001524f1        0x3 
 .rodata.str1.4
                0x001524f4        0x7 C:\devkitPro\ctrulib\libctru/lib\libctru.a(irrst.o)
                                  0x8 (size before relaxing)
 *fill*         0x001524fb        0x1 
 .rodata.str1.4
                0x001524fc        0x4 c:/devkitpro/devkitarm/bin/../lib/gcc/arm-none-eabi/4.9.2/../../../../arm-none-eabi/lib\libg.a(lib_a-impure.o)
 *all.rodata*(*)
 *(.gnu.linkonce.r*)
                0x00152500                . = ALIGN (0x4)

.rel.dyn        0x00152500        0x0
 .rel.iplt      0x00000000        0x0 c:/devkitpro/devkitarm/bin/../lib/gcc/arm-none-eabi/4.9.2/../../../../arm-none-eabi/lib/3dsx_crt0.o

.ARM.extab
 *(.ARM.extab* .gnu.linkonce.armextab.*)
                0x00152500                __exidx_start = .

ARM.exidx
 *(.ARM.exidx* .gnu.linkonce.armexidx.*)
                0x00152500                __exidx_end = .

.data           0x00153000      0x848
 *(.data)
 .data          0x00153000        0x0 c:/devkitpro/devkitarm/bin/../lib/gcc/arm-none-eabi/4.9.2/../../../../arm-none-eabi/lib/3dsx_crt0.o
 .data          0x00153000        0x0 c:/devkitpro/devkitarm/bin/../lib/gcc/arm-none-eabi/4.9.2/crti.o
 .data          0x00153000        0x4 c:/devkitpro/devkitarm/bin/../lib/gcc/arm-none-eabi/4.9.2/crtbegin.o
                0x00153000                __dso_handle
 .data          0x00153004        0x0 bgtop.bin.o
 .data          0x00153004        0x0 numbers.bin.o
 .data          0x00153004        0x0 gfx.o
 .data          0x00153004        0x1 main.o
                0x00153004                inMenu
 .data          0x00153005        0x0 C:\devkitPro\ctrulib\libctru/lib\libctru.a(gfx.o)
 .data          0x00153005        0x0 C:\devkitPro\ctrulib\libctru/lib\libctru.a(initSystem.o)
 .data          0x00153005        0x0 C:\devkitPro\ctrulib\libctru/lib\libctru.a(srv.o)
 .data          0x00153005        0x0 C:\devkitPro\ctrulib\libctru/lib\libctru.a(apt.o)
 .data          0x00153005        0x0 C:\devkitPro\ctrulib\libctru/lib\libctru.a(gsp.o)
 .data          0x00153005        0x0 C:\devkitPro\ctrulib\libctru/lib\libctru.a(gx.o)
 .data          0x00153005        0x0 C:\devkitPro\ctrulib\libctru/lib\libctru.a(hid.o)
 .data          0x00153005        0x0 C:\devkitPro\ctrulib\libctru/lib\libctru.a(irrst.o)
 .data          0x00153005        0x0 C:\devkitPro\ctrulib\libctru/lib\libctru.a(svc.o)
 .data          0x00153005        0x0 C:\devkitPro\ctrulib\libctru/lib\libctru.a(linear.o)
 .data          0x00153005        0x0 C:\devkitPro\ctrulib\libctru/lib\libctru.a(mem_pool.o)
 .data          0x00153005        0x0 c:/devkitpro/devkitarm/bin/../lib/gcc/arm-none-eabi/4.9.2\libgcc.a(_divsi3.o)
 .data          0x00153005        0x0 c:/devkitpro/devkitarm/bin/../lib/gcc/arm-none-eabi/4.9.2\libgcc.a(_dvmd_tls.o)
 .data          0x00153005        0x0 c:/devkitpro/devkitarm/bin/../lib/gcc/arm-none-eabi/4.9.2/../../../../arm-none-eabi/lib\libg.a(lib_a-fini.o)
 .data          0x00153005        0x0 c:/devkitpro/devkitarm/bin/../lib/gcc/arm-none-eabi/4.9.2/../../../../arm-none-eabi/lib\libg.a(lib_a-init.o)
 .data          0x00153005        0x0 c:/devkitpro/devkitarm/bin/../lib/gcc/arm-none-eabi/4.9.2/../../../../arm-none-eabi/lib\libg.a(lib_a-malloc.o)
 *fill*         0x00153005        0x3 
 .data          0x00153008      0x410 c:/devkitpro/devkitarm/bin/../lib/gcc/arm-none-eabi/4.9.2/../../../../arm-none-eabi/lib\libg.a(lib_a-mallocr.o)
                0x00153008                __malloc_av_
                0x00153410                __malloc_sbrk_base
                0x00153414                __malloc_trim_threshold
 .data          0x00153418        0x0 c:/devkitpro/devkitarm/bin/../lib/gcc/arm-none-eabi/4.9.2/../../../../arm-none-eabi/lib\libg.a(lib_a-memcpy-stub.o)
 .data          0x00153418        0x0 c:/devkitpro/devkitarm/bin/../lib/gcc/arm-none-eabi/4.9.2/../../../../arm-none-eabi/lib\libg.a(lib_a-mlock.o)
 .data          0x00153418        0x0 c:/devkitpro/devkitarm/bin/../lib/gcc/arm-none-eabi/4.9.2/../../../../arm-none-eabi/lib\libg.a(lib_a-strcpy.o)
 .data          0x00153418        0x0 c:/devkitpro/devkitarm/bin/../lib/gcc/arm-none-eabi/4.9.2/../../../../arm-none-eabi/lib\libg.a(lib_a-strlen.o)
 .data          0x00153418        0x0 c:/devkitpro/devkitarm/bin/../lib/gcc/arm-none-eabi/4.9.2/../../../../arm-none-eabi/lib\libg.a(lib_a-freer.o)
 .data          0x00153418      0x430 c:/devkitpro/devkitarm/bin/../lib/gcc/arm-none-eabi/4.9.2/../../../../arm-none-eabi/lib\libg.a(lib_a-impure.o)
                0x00153418                _impure_ptr
 .data          0x00153848        0x0 c:/devkitpro/devkitarm/bin/../lib/gcc/arm-none-eabi/4.9.2/../../../../arm-none-eabi/lib\libsysbase.a(sbrk.o)
 .data          0x00153848        0x0 c:/devkitpro/devkitarm/bin/../lib/gcc/arm-none-eabi/4.9.2/../../../../arm-none-eabi/lib\libsysbase.a(malloc_vars.o)
 .data          0x00153848        0x0 c:/devkitpro/devkitarm/bin/../lib/gcc/arm-none-eabi/4.9.2/../../../../arm-none-eabi/lib\libsysbase.a(syscall_support.o)
 .data          0x00153848        0x0 c:/devkitpro/devkitarm/bin/../lib/gcc/arm-none-eabi/4.9.2/crtend.o
 .data          0x00153848        0x0 c:/devkitpro/devkitarm/bin/../lib/gcc/arm-none-eabi/4.9.2/crtn.o
 *(.data.*)
 *(.gnu.linkonce.d*)
                0x00153848                . = ALIGN (0x4)

.igot.plt       0x00153848        0x0
 .igot.plt      0x00000000        0x0 c:/devkitpro/devkitarm/bin/../lib/gcc/arm-none-eabi/4.9.2/../../../../arm-none-eabi/lib/3dsx_crt0.o

.eh_frame       0x00153848        0x4
 .eh_frame      0x00153848        0x0 c:/devkitpro/devkitarm/bin/../lib/gcc/arm-none-eabi/4.9.2/crtbegin.o
 .eh_frame      0x00153848        0x4 c:/devkitpro/devkitarm/bin/../lib/gcc/arm-none-eabi/4.9.2/crtend.o

.jcr            0x0015384c        0x4
 .jcr           0x0015384c        0x0 c:/devkitpro/devkitarm/bin/../lib/gcc/arm-none-eabi/4.9.2/crtbegin.o
 .jcr           0x0015384c        0x4 c:/devkitpro/devkitarm/bin/../lib/gcc/arm-none-eabi/4.9.2/crtend.o

.tm_clone_table
                0x00153850        0x0
 .tm_clone_table
                0x00153850        0x0 c:/devkitpro/devkitarm/bin/../lib/gcc/arm-none-eabi/4.9.2/crtbegin.o
 .tm_clone_table
                0x00153850        0x0 c:/devkitpro/devkitarm/bin/../lib/gcc/arm-none-eabi/4.9.2/crtend.o
                0x00153850                __TMC_END__

.preinit_array  0x00153850        0x0
                0x00153850                PROVIDE (__preinit_array_start, .)
 *(.preinit_array)
                0x00153850                PROVIDE (__preinit_array_end, .)

.init_array     0x00153850        0x4
                0x00153850                PROVIDE (__init_array_start, .)
 *(SORT(.init_array.*))
 *(.init_array)
 .init_array    0x00153850        0x4 c:/devkitpro/devkitarm/bin/../lib/gcc/arm-none-eabi/4.9.2/crtbegin.o
                0x00153854                PROVIDE (__init_array_end, .)

.fini_array     0x00153854        0x4
                0x00153854                PROVIDE (__fini_array_start, .)
 *(.fini_array)
 .fini_array    0x00153854        0x4 c:/devkitpro/devkitarm/bin/../lib/gcc/arm-none-eabi/4.9.2/crtbegin.o
 *(SORT(.fini_array.*))
                0x00153858                PROVIDE (__fini_array_end, .)

.ctors
 *crtbegin.o(.ctors)
 *(EXCLUDE_FILE(*crtend.o) .ctors)
 *(SORT(.ctors.*))
 *(.ctors)

.dtors
 *crtbegin.o(.dtors)
 *(EXCLUDE_FILE(*crtend.o) .dtors)
 *(SORT(.dtors.*))
 *(.dtors)
                0x00153858                __bss_start__ = .

.bss            0x00153858     0x3220
 *(.dynbss)
 *(.bss)
 .bss           0x00153858        0x0 c:/devkitpro/devkitarm/bin/../lib/gcc/arm-none-eabi/4.9.2/../../../../arm-none-eabi/lib/3dsx_crt0.o
 .bss           0x00153858        0x0 c:/devkitpro/devkitarm/bin/../lib/gcc/arm-none-eabi/4.9.2/crti.o
 .bss           0x00153858       0x1c c:/devkitpro/devkitarm/bin/../lib/gcc/arm-none-eabi/4.9.2/crtbegin.o
 .bss           0x00153874        0x0 bgtop.bin.o
 .bss           0x00153874        0x0 numbers.bin.o
 .bss           0x00153874        0x0 gfx.o
 .bss           0x00153874       0x24 main.o
                0x00153874                score
                0x00153878                gametime
                0x0015387c                h
                0x00153880                t
                0x00153884                o
                0x00153888                inGame
                0x00153889                inGameOver
                0x0015388c                playTimes
                0x00153890                avgScore
                0x00153894                hscore
 .bss           0x00153898        0x0 C:\devkitPro\ctrulib\libctru/lib\libctru.a(gfx.o)
 .bss           0x00153898        0x4 C:\devkitPro\ctrulib\libctru/lib\libctru.a(initSystem.o)
 .bss           0x0015389c        0x4 C:\devkitPro\ctrulib\libctru/lib\libctru.a(srv.o)
 .bss           0x001538a0       0x4c C:\devkitPro\ctrulib\libctru/lib\libctru.a(apt.o)
                0x001538a4                aptStatusEvent
                0x001538a8                aptStatus
                0x001538ac                aptStatusPower
                0x001538b0                aptSleepSync
                0x001538d4                aptStatusBeforeSleep
 .bss           0x001538ec        0xc C:\devkitPro\ctrulib\libctru/lib\libctru.a(gsp.o)
                0x001538f4                gspGpuHandle
 .bss           0x001538f8        0x0 C:\devkitPro\ctrulib\libctru/lib\libctru.a(gx.o)
 .bss           0x001538f8       0x28 C:\devkitPro\ctrulib\libctru/lib\libctru.a(hid.o)
 .bss           0x00153920        0xc C:\devkitPro\ctrulib\libctru/lib\libctru.a(irrst.o)
 .bss           0x0015392c        0x0 C:\devkitPro\ctrulib\libctru/lib\libctru.a(svc.o)
 .bss           0x0015392c        0x8 C:\devkitPro\ctrulib\libctru/lib\libctru.a(linear.o)
 .bss           0x00153934        0x0 C:\devkitPro\ctrulib\libctru/lib\libctru.a(mem_pool.o)
 .bss           0x00153934        0x0 c:/devkitpro/devkitarm/bin/../lib/gcc/arm-none-eabi/4.9.2\libgcc.a(_divsi3.o)
 .bss           0x00153934        0x0 c:/devkitpro/devkitarm/bin/../lib/gcc/arm-none-eabi/4.9.2\libgcc.a(_dvmd_tls.o)
 .bss           0x00153934        0x0 c:/devkitpro/devkitarm/bin/../lib/gcc/arm-none-eabi/4.9.2/../../../../arm-none-eabi/lib\libg.a(lib_a-fini.o)
 .bss           0x00153934        0x0 c:/devkitpro/devkitarm/bin/../lib/gcc/arm-none-eabi/4.9.2/../../../../arm-none-eabi/lib\libg.a(lib_a-init.o)
 .bss           0x00153934        0x0 c:/devkitpro/devkitarm/bin/../lib/gcc/arm-none-eabi/4.9.2/../../../../arm-none-eabi/lib\libg.a(lib_a-malloc.o)
 .bss           0x00153934       0x34 c:/devkitpro/devkitarm/bin/../lib/gcc/arm-none-eabi/4.9.2/../../../../arm-none-eabi/lib\libg.a(lib_a-mallocr.o)
                0x00153934                __malloc_top_pad
                0x00153938                __malloc_current_mallinfo
                0x00153960                __malloc_max_sbrked_mem
                0x00153964                __malloc_max_total_mem
 .bss           0x00153968        0x0 c:/devkitpro/devkitarm/bin/../lib/gcc/arm-none-eabi/4.9.2/../../../../arm-none-eabi/lib\libg.a(lib_a-memcpy-stub.o)
 .bss           0x00153968        0x0 c:/devkitpro/devkitarm/bin/../lib/gcc/arm-none-eabi/4.9.2/../../../../arm-none-eabi/lib\libg.a(lib_a-mlock.o)
 .bss           0x00153968        0x0 c:/devkitpro/devkitarm/bin/../lib/gcc/arm-none-eabi/4.9.2/../../../../arm-none-eabi/lib\libg.a(lib_a-strcpy.o)
 .bss           0x00153968        0x0 c:/devkitpro/devkitarm/bin/../lib/gcc/arm-none-eabi/4.9.2/../../../../arm-none-eabi/lib\libg.a(lib_a-strlen.o)
 .bss           0x00153968        0x0 c:/devkitpro/devkitarm/bin/../lib/gcc/arm-none-eabi/4.9.2/../../../../arm-none-eabi/lib\libg.a(lib_a-freer.o)
 .bss           0x00153968        0x0 c:/devkitpro/devkitarm/bin/../lib/gcc/arm-none-eabi/4.9.2/../../../../arm-none-eabi/lib\libg.a(lib_a-impure.o)
 .bss           0x00153968        0x4 c:/devkitpro/devkitarm/bin/../lib/gcc/arm-none-eabi/4.9.2/../../../../arm-none-eabi/lib\libsysbase.a(sbrk.o)
 .bss           0x0015396c        0x8 c:/devkitpro/devkitarm/bin/../lib/gcc/arm-none-eabi/4.9.2/../../../../arm-none-eabi/lib\libsysbase.a(malloc_vars.o)
                0x0015396c                fake_heap_start
                0x00153970                fake_heap_end
 .bss           0x00153974        0x8 c:/devkitpro/devkitarm/bin/../lib/gcc/arm-none-eabi/4.9.2/../../../../arm-none-eabi/lib\libsysbase.a(syscall_support.o)
                0x00153974                __syscalls
 .bss           0x0015397c        0x0 c:/devkitpro/devkitarm/bin/../lib/gcc/arm-none-eabi/4.9.2/crtend.o
 .bss           0x0015397c        0x0 c:/devkitpro/devkitarm/bin/../lib/gcc/arm-none-eabi/4.9.2/crtn.o
 *(.bss.*)
 *(.gnu.linkonce.b*)
 *(COMMON)
 COMMON         0x0015397c       0x68 C:\devkitPro\ctrulib\libctru/lib\libctru.a(gfx.o)
                0x0015397c                gfxBottomFramebuffers
                0x00153984                gspSharedMemHandle
                0x00153988                bottomFramebufferInfo
                0x001539a4                gspEvent
                0x001539a8                currentBuffer
                0x001539ac                gfxTopLeftFramebuffers
                0x001539b4                enable3d
                0x001539b8                gfxTopRightFramebuffers
                0x001539c0                topFramebufferInfo
                0x001539dc                gfxThreadID
                0x001539e0                gfxSharedMemory
 COMMON         0x001539e4       0x10 C:\devkitPro\ctrulib\libctru/lib\libctru.a(initSystem.o)
                0x001539e4                __system_argv
                0x001539e8                __system_argc
                0x001539ec                __linear_heap
                0x001539f0                __system_retAddr
 *fill*         0x001539f4        0x4 
 COMMON         0x001539f8     0x2022 C:\devkitPro\ctrulib\libctru/lib\libctru.a(apt.o)
                0x001539f8                aptEventHandlerThread
                0x001539fc                aptParameters
                0x00154a00                aptEventHandlerStack
                0x00155a00                aptuHandle
                0x00155a04                aptEvents
                0x00155a10                aptStatusMutex
                0x00155a14                aptLockHandle
                0x00155a18                currentAppId
 *fill*         0x00155a1a        0x6 
 COMMON         0x00155a20     0x1021 C:\devkitPro\ctrulib\libctru/lib\libctru.a(gsp.o)
                0x00155a20                gspEventStack
                0x00156a20                gspEventThread
                0x00156a24                gspEvents
                0x00156a40                gspRunEvents
 *fill*         0x00156a41        0x3 
 COMMON         0x00156a44        0x4 C:\devkitPro\ctrulib\libctru/lib\libctru.a(gx.o)
                0x00156a44                gxCmdBuf
 COMMON         0x00156a48       0x20 C:\devkitPro\ctrulib\libctru/lib\libctru.a(hid.o)
                0x00156a48                hidMemHandle
                0x00156a4c                hidHandle
                0x00156a50                hidSharedMem
                0x00156a54                hidEvents
 COMMON         0x00156a68       0x10 C:\devkitPro\ctrulib\libctru/lib\libctru.a(irrst.o)
                0x00156a68                irrstHandle
                0x00156a6c                irrstEvent
                0x00156a70                irrstMemHandle
                0x00156a74                irrstSharedMem
                0x00156a78                . = ALIGN (0x4)
                0x00156a78                __bss_end__ = .
                0x00156a78                __end__ = ABSOLUTE (.)

/DISCARD/
 *(.group .comment .note)

.stab
 *(.stab)

.stabstr
 *(.stabstr)

.stab.excl
 *(.stab.excl)

.stab.exclstr
 *(.stab.exclstr)

.stab.index
 *(.stab.index)

.stab.indexstr
 *(.stab.indexstr)

.debug
 *(.debug)

.line
 *(.line)

.debug_srcinfo
 *(.debug_srcinfo)

.debug_sfnames
 *(.debug_sfnames)

.debug_aranges  0x00000000      0x1a8
 *(.debug_aranges)
 .debug_aranges
                0x00000000       0x20 gfx.o
 .debug_aranges
                0x00000020       0x28 main.o
 .debug_aranges
                0x00000048       0x20 C:\devkitPro\ctrulib\libctru/lib\libctru.a(gfx.o)
 .debug_aranges
                0x00000068       0x20 C:\devkitPro\ctrulib\libctru/lib\libctru.a(initSystem.o)
 .debug_aranges
                0x00000088       0x20 C:\devkitPro\ctrulib\libctru/lib\libctru.a(srv.o)
 .debug_aranges
                0x000000a8       0x20 C:\devkitPro\ctrulib\libctru/lib\libctru.a(apt.o)
 .debug_aranges
                0x000000c8       0x20 C:\devkitPro\ctrulib\libctru/lib\libctru.a(gsp.o)
 .debug_aranges
                0x000000e8       0x20 C:\devkitPro\ctrulib\libctru/lib\libctru.a(gx.o)
 .debug_aranges
                0x00000108       0x20 C:\devkitPro\ctrulib\libctru/lib\libctru.a(hid.o)
 .debug_aranges
                0x00000128       0x20 C:\devkitPro\ctrulib\libctru/lib\libctru.a(irrst.o)
 .debug_aranges
                0x00000148       0x20 C:\devkitPro\ctrulib\libctru/lib\libctru.a(svc.o)
 .debug_aranges
                0x00000168       0x20 C:\devkitPro\ctrulib\libctru/lib\libctru.a(linear.o)
 .debug_aranges
                0x00000188       0x20 C:\devkitPro\ctrulib\libctru/lib\libctru.a(mem_pool.o)

.debug_pubnames
 *(.debug_pubnames)

.debug_info     0x00000000     0x8683
 *(.debug_info)
 .debug_info    0x00000000      0x50d gfx.o
 .debug_info    0x0000050d      0x6d6 main.o
 .debug_info    0x00000be3      0xb57 C:\devkitPro\ctrulib\libctru/lib\libctru.a(gfx.o)
 .debug_info    0x0000173a      0xc18 C:\devkitPro\ctrulib\libctru/lib\libctru.a(initSystem.o)
 .debug_info    0x00002352      0x5b3 C:\devkitPro\ctrulib\libctru/lib\libctru.a(srv.o)
 .debug_info    0x00002905     0x2817 C:\devkitPro\ctrulib\libctru/lib\libctru.a(apt.o)
 .debug_info    0x0000511c      0xe20 C:\devkitPro\ctrulib\libctru/lib\libctru.a(gsp.o)
 .debug_info    0x00005f3c      0x4e7 C:\devkitPro\ctrulib\libctru/lib\libctru.a(gx.o)
 .debug_info    0x00006423      0xbf1 C:\devkitPro\ctrulib\libctru/lib\libctru.a(hid.o)
 .debug_info    0x00007014      0x678 C:\devkitPro\ctrulib\libctru/lib\libctru.a(irrst.o)
 .debug_info    0x0000768c       0x73 C:\devkitPro\ctrulib\libctru/lib\libctru.a(svc.o)
 .debug_info    0x000076ff      0x6a8 C:\devkitPro\ctrulib\libctru/lib\libctru.a(linear.o)
 .debug_info    0x00007da7      0x8dc C:\devkitPro\ctrulib\libctru/lib\libctru.a(mem_pool.o)

.debug_abbrev   0x00000000     0x1caf
 *(.debug_abbrev)
 .debug_abbrev  0x00000000      0x144 gfx.o
 .debug_abbrev  0x00000144      0x210 main.o
 .debug_abbrev  0x00000354      0x2bd C:\devkitPro\ctrulib\libctru/lib\libctru.a(gfx.o)
 .debug_abbrev  0x00000611      0x2d8 C:\devkitPro\ctrulib\libctru/lib\libctru.a(initSystem.o)
 .debug_abbrev  0x000008e9      0x22a C:\devkitPro\ctrulib\libctru/lib\libctru.a(srv.o)
 .debug_abbrev  0x00000b13      0x3b5 C:\devkitPro\ctrulib\libctru/lib\libctru.a(apt.o)
 .debug_abbrev  0x00000ec8      0x2b6 C:\devkitPro\ctrulib\libctru/lib\libctru.a(gsp.o)
 .debug_abbrev  0x0000117e       0xf9 C:\devkitPro\ctrulib\libctru/lib\libctru.a(gx.o)
 .debug_abbrev  0x00001277      0x2c4 C:\devkitPro\ctrulib\libctru/lib\libctru.a(hid.o)
 .debug_abbrev  0x0000153b      0x24d C:\devkitPro\ctrulib\libctru/lib\libctru.a(irrst.o)
 .debug_abbrev  0x00001788       0x14 C:\devkitPro\ctrulib\libctru/lib\libctru.a(svc.o)
 .debug_abbrev  0x0000179c      0x281 C:\devkitPro\ctrulib\libctru/lib\libctru.a(linear.o)
 .debug_abbrev  0x00001a1d      0x292 C:\devkitPro\ctrulib\libctru/lib\libctru.a(mem_pool.o)

.debug_line     0x00000000     0x1f4c
 *(.debug_line)
 .debug_line    0x00000000      0x1e1 gfx.o
 .debug_line    0x000001e1      0x247 main.o
 .debug_line    0x00000428      0x280 C:\devkitPro\ctrulib\libctru/lib\libctru.a(gfx.o)
 .debug_line    0x000006a8      0x224 C:\devkitPro\ctrulib\libctru/lib\libctru.a(initSystem.o)
 .debug_line    0x000008cc      0x207 C:\devkitPro\ctrulib\libctru/lib\libctru.a(srv.o)
 .debug_line    0x00000ad3      0x56d C:\devkitPro\ctrulib\libctru/lib\libctru.a(apt.o)
 .debug_line    0x00001040      0x301 C:\devkitPro\ctrulib\libctru/lib\libctru.a(gsp.o)
 .debug_line    0x00001341      0x1f5 C:\devkitPro\ctrulib\libctru/lib\libctru.a(gx.o)
 .debug_line    0x00001536      0x26b C:\devkitPro\ctrulib\libctru/lib\libctru.a(hid.o)
 .debug_line    0x000017a1      0x1fe C:\devkitPro\ctrulib\libctru/lib\libctru.a(irrst.o)
 .debug_line    0x0000199f       0xdd C:\devkitPro\ctrulib\libctru/lib\libctru.a(svc.o)
 .debug_line    0x00001a7c      0x204 C:\devkitPro\ctrulib\libctru/lib\libctru.a(linear.o)
 .debug_line    0x00001c80      0x2cc C:\devkitPro\ctrulib\libctru/lib\libctru.a(mem_pool.o)

.debug_frame    0x00000000     0x11cc
 *(.debug_frame)
 .debug_frame   0x00000000       0xa0 gfx.o
 .debug_frame   0x000000a0       0x90 main.o
 .debug_frame   0x00000130      0x128 C:\devkitPro\ctrulib\libctru/lib\libctru.a(gfx.o)
 .debug_frame   0x00000258       0x5c C:\devkitPro\ctrulib\libctru/lib\libctru.a(initSystem.o)
 .debug_frame   0x000002b4      0x118 C:\devkitPro\ctrulib\libctru/lib\libctru.a(srv.o)
 .debug_frame   0x000003cc      0x650 C:\devkitPro\ctrulib\libctru/lib\libctru.a(apt.o)
 .debug_frame   0x00000a1c      0x2cc C:\devkitPro\ctrulib\libctru/lib\libctru.a(gsp.o)
 .debug_frame   0x00000ce8       0xf0 C:\devkitPro\ctrulib\libctru/lib\libctru.a(gx.o)
 .debug_frame   0x00000dd8      0x1b8 C:\devkitPro\ctrulib\libctru/lib\libctru.a(hid.o)
 .debug_frame   0x00000f90      0x120 C:\devkitPro\ctrulib\libctru/lib\libctru.a(irrst.o)
 .debug_frame   0x000010b0       0x80 C:\devkitPro\ctrulib\libctru/lib\libctru.a(linear.o)
 .debug_frame   0x00001130       0x9c C:\devkitPro\ctrulib\libctru/lib\libctru.a(mem_pool.o)

.debug_str      0x00000000     0x2497
 *(.debug_str)
 .debug_str     0x00000000      0x211 gfx.o
                                0x268 (size before relaxing)
 .debug_str     0x00000211      0x376 main.o
                                0x4c4 (size before relaxing)
 .debug_str     0x00000587      0x3cf C:\devkitPro\ctrulib\libctru/lib\libctru.a(gfx.o)
                                0x664 (size before relaxing)
 .debug_str     0x00000956      0x58f C:\devkitPro\ctrulib\libctru/lib\libctru.a(initSystem.o)
                                0x723 (size before relaxing)
 .debug_str     0x00000ee5      0x14d C:\devkitPro\ctrulib\libctru/lib\libctru.a(srv.o)
                                0x2e0 (size before relaxing)
 .debug_str     0x00001032      0x9b0 C:\devkitPro\ctrulib\libctru/lib\libctru.a(apt.o)
                                0xc76 (size before relaxing)
 .debug_str     0x000019e2      0x219 C:\devkitPro\ctrulib\libctru/lib\libctru.a(gsp.o)
                                0x6ef (size before relaxing)
 .debug_str     0x00001bfb      0x119 C:\devkitPro\ctrulib\libctru/lib\libctru.a(gx.o)
                                0x2b0 (size before relaxing)
 .debug_str     0x00001d14      0x2bc C:\devkitPro\ctrulib\libctru/lib\libctru.a(hid.o)
                                0x6a1 (size before relaxing)
 .debug_str     0x00001fd0      0x102 C:\devkitPro\ctrulib\libctru/lib\libctru.a(irrst.o)
                                0x408 (size before relaxing)
 .debug_str     0x000020d2      0x339 C:\devkitPro\ctrulib\libctru/lib\libctru.a(linear.o)
                                0x587 (size before relaxing)
 .debug_str     0x0000240b       0x8c C:\devkitPro\ctrulib\libctru/lib\libctru.a(mem_pool.o)
                                0x425 (size before relaxing)

.debug_loc      0x00000000     0x4945
 *(.debug_loc)
 .debug_loc     0x00000000      0x7b3 gfx.o
 .debug_loc     0x000007b3       0x97 main.o
 .debug_loc     0x0000084a      0x2fe C:\devkitPro\ctrulib\libctru/lib\libctru.a(gfx.o)
 .debug_loc     0x00000b48      0x13d C:\devkitPro\ctrulib\libctru/lib\libctru.a(initSystem.o)
 .debug_loc     0x00000c85      0x3b4 C:\devkitPro\ctrulib\libctru/lib\libctru.a(srv.o)
 .debug_loc     0x00001039     0x1328 C:\devkitPro\ctrulib\libctru/lib\libctru.a(apt.o)
 .debug_loc     0x00002361      0xc6f C:\devkitPro\ctrulib\libctru/lib\libctru.a(gsp.o)
 .debug_loc     0x00002fd0      0x38a C:\devkitPro\ctrulib\libctru/lib\libctru.a(gx.o)
 .debug_loc     0x0000335a      0x76b C:\devkitPro\ctrulib\libctru/lib\libctru.a(hid.o)
 .debug_loc     0x00003ac5      0x3f2 C:\devkitPro\ctrulib\libctru/lib\libctru.a(irrst.o)
 .debug_loc     0x00003eb7      0x193 C:\devkitPro\ctrulib\libctru/lib\libctru.a(linear.o)
 .debug_loc     0x0000404a      0x8fb C:\devkitPro\ctrulib\libctru/lib\libctru.a(mem_pool.o)

.debug_macinfo
 *(.debug_macinfo)
LOAD c:/devkitpro/devkitarm/bin/../lib/gcc/arm-none-eabi/4.9.2/../../../../arm-none-eabi/lib/3dsx_crt0.o
LOAD c:/devkitpro/devkitarm/bin/../lib/gcc/arm-none-eabi/4.9.2/crti.o
LOAD c:/devkitpro/devkitarm/bin/../lib/gcc/arm-none-eabi/4.9.2/crtbegin.o
LOAD bgtop.bin.o
LOAD numbers.bin.o
LOAD gfx.o
LOAD main.o
LOAD C:\devkitPro\ctrulib\libctru/lib\libctru.a
LOAD c:/devkitpro/devkitarm/bin/../lib/gcc/arm-none-eabi/4.9.2/../../../../arm-none-eabi/lib\libm.a
START GROUP
LOAD c:/devkitpro/devkitarm/bin/../lib/gcc/arm-none-eabi/4.9.2\libgcc.a
LOAD c:/devkitpro/devkitarm/bin/../lib/gcc/arm-none-eabi/4.9.2/../../../../arm-none-eabi/lib\libg.a
LOAD c:/devkitpro/devkitarm/bin/../lib/gcc/arm-none-eabi/4.9.2/../../../../arm-none-eabi/lib\libc.a
LOAD c:/devkitpro/devkitarm/bin/../lib/gcc/arm-none-eabi/4.9.2/../../../../arm-none-eabi/lib\libsysbase.a
END GROUP
LOAD c:/devkitpro/devkitarm/bin/../lib/gcc/arm-none-eabi/4.9.2/crtend.o
LOAD c:/devkitpro/devkitarm/bin/../lib/gcc/arm-none-eabi/4.9.2/crtn.o
OUTPUT(c:/devkitPro/3DS/TPSgui/TPSgui.elf elf32-littlearm)

.ARM.attributes
                0x00000000       0x30
 .ARM.attributes
                0x00000000       0x1e c:/devkitpro/devkitarm/bin/../lib/gcc/arm-none-eabi/4.9.2/../../../../arm-none-eabi/lib/3dsx_crt0.o
 .ARM.attributes
                0x0000001e       0x16 c:/devkitpro/devkitarm/bin/../lib/gcc/arm-none-eabi/4.9.2/crti.o
 .ARM.attributes
                0x00000034       0x30 c:/devkitpro/devkitarm/bin/../lib/gcc/arm-none-eabi/4.9.2/crtbegin.o
 .ARM.attributes
                0x00000064       0x14 bgtop.bin.o
 .ARM.attributes
                0x00000078       0x14 numbers.bin.o
 .ARM.attributes
                0x0000008c       0x2c gfx.o
 .ARM.attributes
                0x000000b8       0x2c main.o
 .ARM.attributes
                0x000000e4       0x2c C:\devkitPro\ctrulib\libctru/lib\libctru.a(gfx.o)
 .ARM.attributes
                0x00000110       0x2c C:\devkitPro\ctrulib\libctru/lib\libctru.a(initSystem.o)
 .ARM.attributes
                0x0000013c       0x2c C:\devkitPro\ctrulib\libctru/lib\libctru.a(srv.o)
 .ARM.attributes
                0x00000168       0x2c C:\devkitPro\ctrulib\libctru/lib\libctru.a(apt.o)
 .ARM.attributes
                0x00000194       0x2c C:\devkitPro\ctrulib\libctru/lib\libctru.a(gsp.o)
 .ARM.attributes
                0x000001c0       0x2c C:\devkitPro\ctrulib\libctru/lib\libctru.a(gx.o)
 .ARM.attributes
                0x000001ec       0x2c C:\devkitPro\ctrulib\libctru/lib\libctru.a(hid.o)
 .ARM.attributes
                0x00000218       0x2c C:\devkitPro\ctrulib\libctru/lib\libctru.a(irrst.o)
 .ARM.attributes
                0x00000244       0x1a C:\devkitPro\ctrulib\libctru/lib\libctru.a(svc.o)
 .ARM.attributes
                0x0000025e       0x2c C:\devkitPro\ctrulib\libctru/lib\libctru.a(linear.o)
 .ARM.attributes
                0x0000028a       0x2c C:\devkitPro\ctrulib\libctru/lib\libctru.a(mem_pool.o)
 .ARM.attributes
                0x000002b6       0x18 c:/devkitpro/devkitarm/bin/../lib/gcc/arm-none-eabi/4.9.2\libgcc.a(_divsi3.o)
 .ARM.attributes
                0x000002ce       0x18 c:/devkitpro/devkitarm/bin/../lib/gcc/arm-none-eabi/4.9.2\libgcc.a(_dvmd_tls.o)
 .ARM.attributes
                0x000002e6       0x30 c:/devkitpro/devkitarm/bin/../lib/gcc/arm-none-eabi/4.9.2/../../../../arm-none-eabi/lib\libg.a(lib_a-fini.o)
 .ARM.attributes
                0x00000316       0x30 c:/devkitpro/devkitarm/bin/../lib/gcc/arm-none-eabi/4.9.2/../../../../arm-none-eabi/lib\libg.a(lib_a-init.o)
 .ARM.attributes
                0x00000346       0x30 c:/devkitpro/devkitarm/bin/../lib/gcc/arm-none-eabi/4.9.2/../../../../arm-none-eabi/lib\libg.a(lib_a-malloc.o)
 .ARM.attributes
                0x00000376       0x30 c:/devkitpro/devkitarm/bin/../lib/gcc/arm-none-eabi/4.9.2/../../../../arm-none-eabi/lib\libg.a(lib_a-mallocr.o)
 .ARM.attributes
                0x000003a6       0x30 c:/devkitpro/devkitarm/bin/../lib/gcc/arm-none-eabi/4.9.2/../../../../arm-none-eabi/lib\libg.a(lib_a-memcpy-stub.o)
 .ARM.attributes
                0x000003d6       0x30 c:/devkitpro/devkitarm/bin/../lib/gcc/arm-none-eabi/4.9.2/../../../../arm-none-eabi/lib\libg.a(lib_a-mlock.o)
 .ARM.attributes
                0x00000406       0x30 c:/devkitpro/devkitarm/bin/../lib/gcc/arm-none-eabi/4.9.2/../../../../arm-none-eabi/lib\libg.a(lib_a-strcpy.o)
 .ARM.attributes
                0x00000436       0x30 c:/devkitpro/devkitarm/bin/../lib/gcc/arm-none-eabi/4.9.2/../../../../arm-none-eabi/lib\libg.a(lib_a-strlen.o)
 .ARM.attributes
                0x00000466       0x30 c:/devkitpro/devkitarm/bin/../lib/gcc/arm-none-eabi/4.9.2/../../../../arm-none-eabi/lib\libg.a(lib_a-freer.o)
 .ARM.attributes
                0x00000496       0x30 c:/devkitpro/devkitarm/bin/../lib/gcc/arm-none-eabi/4.9.2/../../../../arm-none-eabi/lib\libg.a(lib_a-impure.o)
 .ARM.attributes
                0x000004c6       0x30 c:/devkitpro/devkitarm/bin/../lib/gcc/arm-none-eabi/4.9.2/../../../../arm-none-eabi/lib\libsysbase.a(sbrk.o)
 .ARM.attributes
                0x000004f6       0x30 c:/devkitpro/devkitarm/bin/../lib/gcc/arm-none-eabi/4.9.2/../../../../arm-none-eabi/lib\libsysbase.a(malloc_vars.o)
 .ARM.attributes
                0x00000526       0x30 c:/devkitpro/devkitarm/bin/../lib/gcc/arm-none-eabi/4.9.2/../../../../arm-none-eabi/lib\libsysbase.a(syscall_support.o)
 .ARM.attributes
                0x00000556       0x30 c:/devkitpro/devkitarm/bin/../lib/gcc/arm-none-eabi/4.9.2/crtend.o
 .ARM.attributes
                0x00000586       0x18 c:/devkitpro/devkitarm/bin/../lib/gcc/arm-none-eabi/4.9.2/crtn.o

.debug_ranges   0x00000000      0x490
 .debug_ranges  0x00000000       0x40 gfx.o
 .debug_ranges  0x00000040       0x50 main.o
 .debug_ranges  0x00000090       0x78 C:\devkitPro\ctrulib\libctru/lib\libctru.a(gfx.o)
 .debug_ranges  0x00000108       0x28 C:\devkitPro\ctrulib\libctru/lib\libctru.a(initSystem.o)
 .debug_ranges  0x00000130       0x70 C:\devkitPro\ctrulib\libctru/lib\libctru.a(apt.o)
 .debug_ranges  0x000001a0       0x38 C:\devkitPro\ctrulib\libctru/lib\libctru.a(gsp.o)
 .debug_ranges  0x000001d8       0x18 C:\devkitPro\ctrulib\libctru/lib\libctru.a(irrst.o)
 .debug_ranges  0x000001f0       0x70 C:\devkitPro\ctrulib\libctru/lib\libctru.a(linear.o)
 .debug_ranges  0x00000260      0x230 C:\devkitPro\ctrulib\libctru/lib\libctru.a(mem_pool.o)
